target datalayout = "e-m:e-p270:32:32-p271:32:32-p272:64:64-i64:64-i128:128-f80:128-n8:16:32:64-S128"
target triple = "x86_64-pc-linux-gnu"

; Function Attrs: nounwind uwtable
define hidden void @ScaleFilterCols_16_C(ptr noundef %0, ptr noundef %1, i32 noundef %2, i32 noundef %3, i32 noundef %4) #0 {
  %6 = alloca ptr, align 8
  %7 = alloca ptr, align 8
  %8 = alloca i32, align 4
  %9 = alloca i32, align 4
  %10 = alloca i32, align 4
  %11 = alloca i32, align 4
  %12 = alloca i32, align 4
  %13 = alloca i32, align 4
  %14 = alloca i32, align 4
  %15 = alloca i32, align 4
  %16 = alloca i32, align 4
  %17 = alloca i32, align 4
  store ptr %0, ptr %6, align 8
  store ptr %1, ptr %7, align 8
  store i32 %2, ptr %8, align 4
  store i32 %3, ptr %9, align 4
  store i32 %4, ptr %10, align 4
  store i32 0, ptr %11, align 4
  br label %18

18:                                               ; preds = %96, %5
  %19 = load i32, ptr %11, align 4
  %20 = load i32, ptr %8, align 4
  %21 = sub nsw i32 %20, 1
  %22 = icmp slt i32 %19, %21
  br i1 %22, label %23, label %99

23:                                               ; preds = %18
  %24 = load i32, ptr %9, align 4
  %25 = ashr i32 %24, 16
  store i32 %25, ptr %12, align 4
  %26 = load ptr, ptr %7, align 8
  %27 = load i32, ptr %12, align 4
  %28 = sext i32 %27 to i64
  %29 = getelementptr inbounds i16, ptr %26, i64 %28
  %30 = load i16, ptr %29, align 2
  %31 = zext i16 %30 to i32
  store i32 %31, ptr %13, align 4
  %32 = load ptr, ptr %7, align 8
  %33 = load i32, ptr %12, align 4
  %34 = add nsw i32 %33, 1
  %35 = sext i32 %34 to i64
  %36 = getelementptr inbounds i16, ptr %32, i64 %35
  %37 = load i16, ptr %36, align 2
  %38 = zext i16 %37 to i32
  store i32 %38, ptr %14, align 4
  %39 = load i32, ptr %13, align 4
  %40 = load i32, ptr %9, align 4
  %41 = and i32 %40, 65535
  %42 = sext i32 %41 to i64
  %43 = load i32, ptr %14, align 4
  %44 = sext i32 %43 to i64
  %45 = load i32, ptr %13, align 4
  %46 = sext i32 %45 to i64
  %47 = sub nsw i64 %44, %46
  %48 = mul nsw i64 %42, %47
  %49 = add nsw i64 %48, 32768
  %50 = ashr i64 %49, 16
  %51 = trunc i64 %50 to i32
  %52 = add nsw i32 %39, %51
  %53 = trunc i32 %52 to i16
  %54 = load ptr, ptr %6, align 8
  %55 = getelementptr inbounds i16, ptr %54, i64 0
  store i16 %53, ptr %55, align 2
  %56 = load i32, ptr %10, align 4
  %57 = load i32, ptr %9, align 4
  %58 = add nsw i32 %57, %56
  store i32 %58, ptr %9, align 4
  %59 = load i32, ptr %9, align 4
  %60 = ashr i32 %59, 16
  store i32 %60, ptr %12, align 4
  %61 = load ptr, ptr %7, align 8
  %62 = load i32, ptr %12, align 4
  %63 = sext i32 %62 to i64
  %64 = getelementptr inbounds i16, ptr %61, i64 %63
  %65 = load i16, ptr %64, align 2
  %66 = zext i16 %65 to i32
  store i32 %66, ptr %13, align 4
  %67 = load ptr, ptr %7, align 8
  %68 = load i32, ptr %12, align 4
  %69 = add nsw i32 %68, 1
  %70 = sext i32 %69 to i64
  %71 = getelementptr inbounds i16, ptr %67, i64 %70
  %72 = load i16, ptr %71, align 2
  %73 = zext i16 %72 to i32
  store i32 %73, ptr %14, align 4
  %74 = load i32, ptr %13, align 4
  %75 = load i32, ptr %9, align 4
  %76 = and i32 %75, 65535
  %77 = sext i32 %76 to i64
  %78 = load i32, ptr %14, align 4
  %79 = sext i32 %78 to i64
  %80 = load i32, ptr %13, align 4
  %81 = sext i32 %80 to i64
  %82 = sub nsw i64 %79, %81
  %83 = mul nsw i64 %77, %82
  %84 = add nsw i64 %83, 32768
  %85 = ashr i64 %84, 16
  %86 = trunc i64 %85 to i32
  %87 = add nsw i32 %74, %86
  %88 = trunc i32 %87 to i16
  %89 = load ptr, ptr %6, align 8
  %90 = getelementptr inbounds i16, ptr %89, i64 1
  store i16 %88, ptr %90, align 2
  %91 = load i32, ptr %10, align 4
  %92 = load i32, ptr %9, align 4
  %93 = add nsw i32 %92, %91
  store i32 %93, ptr %9, align 4
  %94 = load ptr, ptr %6, align 8
  %95 = getelementptr inbounds i16, ptr %94, i64 2
  store ptr %95, ptr %6, align 8
  br label %96

96:                                               ; preds = %23
  %97 = load i32, ptr %11, align 4
  %98 = add nsw i32 %97, 2
  store i32 %98, ptr %11, align 4
  br label %18, !llvm.loop !15

99:                                               ; preds = %18
  %100 = load i32, ptr %8, align 4
  %101 = and i32 %100, 1
  %102 = icmp ne i32 %101, 0
  br i1 %102, label %103, label %136

103:                                              ; preds = %99
  %104 = load i32, ptr %9, align 4
  %105 = ashr i32 %104, 16
  store i32 %105, ptr %15, align 4
  %106 = load ptr, ptr %7, align 8
  %107 = load i32, ptr %15, align 4
  %108 = sext i32 %107 to i64
  %109 = getelementptr inbounds i16, ptr %106, i64 %108
  %110 = load i16, ptr %109, align 2
  %111 = zext i16 %110 to i32
  store i32 %111, ptr %16, align 4
  %112 = load ptr, ptr %7, align 8
  %113 = load i32, ptr %15, align 4
  %114 = add nsw i32 %113, 1
  %115 = sext i32 %114 to i64
  %116 = getelementptr inbounds i16, ptr %112, i64 %115
  %117 = load i16, ptr %116, align 2
  %118 = zext i16 %117 to i32
  store i32 %118, ptr %17, align 4
  %119 = load i32, ptr %16, align 4
  %120 = load i32, ptr %9, align 4
  %121 = and i32 %120, 65535
  %122 = sext i32 %121 to i64
  %123 = load i32, ptr %17, align 4
  %124 = sext i32 %123 to i64
  %125 = load i32, ptr %16, align 4
  %126 = sext i32 %125 to i64
  %127 = sub nsw i64 %124, %126
  %128 = mul nsw i64 %122, %127
  %129 = add nsw i64 %128, 32768
  %130 = ashr i64 %129, 16
  %131 = trunc i64 %130 to i32
  %132 = add nsw i32 %119, %131
  %133 = trunc i32 %132 to i16
  %134 = load ptr, ptr %6, align 8
  %135 = getelementptr inbounds i16, ptr %134, i64 0
  store i16 %133, ptr %135, align 2
  br label %136

136:                                              ; preds = %103, %99
  ret void
}