; Function Attrs: nofree norecurse nosync nounwind memory(argmem: readwrite) uwtable
define hidden void @ScaleFilterCols_16_C(ptr noundef writeonly captures(none) %0, ptr noundef readonly captures(none) %1, i32 noundef %2, i32 noundef %3, i32 noundef %4) local_unnamed_addr #0 {
  %6 = add nsw i32 %2, -1
  %7 = icmp sgt i32 %2, 1
  br i1 %7, label %.lr.ph, label %._crit_edge

.lr.ph:                                           ; preds = %5, %.lr.ph
  %.042 = phi ptr [ %43, %.lr.ph ], [ %0, %5 ]
  %.03841 = phi i32 [ %42, %.lr.ph ], [ %3, %5 ]
  %.03940 = phi i32 [ %44, %.lr.ph ], [ 0, %5 ]
  %8 = ashr i32 %.03841, 16
  %9 = sext i32 %8 to i64
  %10 = getelementptr inbounds i16, ptr %1, i64 %9
  %11 = load i16, ptr %10, align 2
  %12 = getelementptr i8, ptr %10, i64 2
  %13 = load i16, ptr %12, align 2
  %14 = and i32 %.03841, 65535
  %15 = zext nneg i32 %14 to i64
  %16 = zext i16 %13 to i64
  %17 = zext i16 %11 to i64
  %18 = sub nsw i64 %16, %17
  %19 = mul nsw i64 %18, %15
  %20 = add nsw i64 %19, 32768
  %21 = lshr i64 %20, 16
  %22 = trunc i64 %21 to i16
  %23 = add i16 %11, %22
  store i16 %23, ptr %.042, align 2
  %24 = add nsw i32 %.03841, %4
  %25 = ashr i32 %24, 16
  %26 = sext i32 %25 to i64
  %27 = getelementptr inbounds i16, ptr %1, i64 %26
  %28 = load i16, ptr %27, align 2
  %29 = getelementptr i8, ptr %27, i64 2
  %30 = load i16, ptr %29, align 2
  %31 = and i32 %24, 65535
  %32 = zext nneg i32 %31 to i64
  %33 = zext i16 %30 to i64
  %34 = zext i16 %28 to i64
  %35 = sub nsw i64 %33, %34
  %36 = mul nsw i64 %35, %32
  %37 = add nsw i64 %36, 32768
  %38 = lshr i64 %37, 16
  %39 = trunc i64 %38 to i16
  %40 = add i16 %28, %39
  %41 = getelementptr inbounds nuw i8, ptr %.042, i64 2
  store i16 %40, ptr %41, align 2
  %42 = add nsw i32 %24, %4
  %43 = getelementptr inbounds nuw i8, ptr %.042, i64 4
  %44 = add nuw nsw i32 %.03940, 2
  %45 = icmp slt i32 %44, %6
  br i1 %45, label %.lr.ph, label %._crit_edge, !llvm.loop !15

._crit_edge:                                      ; preds = %.lr.ph, %5
  %.038.lcssa = phi i32 [ %3, %5 ], [ %42, %.lr.ph ]
  %.0.lcssa = phi ptr [ %0, %5 ], [ %43, %.lr.ph ]
  %46 = and i32 %2, 1
  %.not = icmp eq i32 %46, 0
  br i1 %.not, label %64, label %47

47:                                               ; preds = %._crit_edge
  %48 = ashr i32 %.038.lcssa, 16
  %49 = sext i32 %48 to i64
  %50 = getelementptr inbounds i16, ptr %1, i64 %49
  %51 = load i16, ptr %50, align 2
  %52 = getelementptr i8, ptr %50, i64 2
  %53 = load i16, ptr %52, align 2
  %54 = and i32 %.038.lcssa, 65535
  %55 = zext nneg i32 %54 to i64
  %56 = zext i16 %53 to i64
  %57 = zext i16 %51 to i64
  %58 = sub nsw i64 %56, %57
  %59 = mul nsw i64 %58, %55
  %60 = add nsw i64 %59, 32768
  %61 = lshr i64 %60, 16
  %62 = trunc i64 %61 to i16
  %63 = add i16 %51, %62
  store i16 %63, ptr %.0.lcssa, align 2
  br label %64

64:                                               ; preds = %47, %._crit_edge
  ret void
}